target datalayout = "e-m:e-p270:32:32-p271:32:32-p272:64:64-i64:64-i128:128-f80:128-n8:16:32:64-S128"
target triple = "x86_64-pc-linux-gnu"

%"class.llvm::StringRef" = type { ptr, i64 }
%"class.llvm::SmallVectorBase" = type { ptr, i32, i32 }
%"class.std::vector.32" = type { %"struct.std::_Vector_base.33" }
%"struct.std::_Vector_base.33" = type { %"struct.std::_Vector_base<llvm::MCCFIInstruction, std::allocator<llvm::MCCFIInstruction>>::_Vector_impl" }
%"struct.std::_Vector_base<llvm::MCCFIInstruction, std::allocator<llvm::MCCFIInstruction>>::_Vector_impl" = type { %"struct.std::_Vector_base<llvm::MCCFIInstruction, std::allocator<llvm::MCCFIInstruction>>::_Vector_impl_data" }
%"struct.std::_Vector_base<llvm::MCCFIInstruction, std::allocator<llvm::MCCFIInstruction>>::_Vector_impl_data" = type { ptr, ptr, ptr }
%"class.llvm::ilist_node_impl" = type { %"class.llvm::ilist_node_base" }
%"class.llvm::ilist_node_base" = type { %"class.llvm::ilist_detail::node_base_prevnext" }
%"class.llvm::ilist_detail::node_base_prevnext" = type { ptr, ptr }
%"struct.llvm::Align" = type { i8 }
%"class.llvm::MachineFunction" = type <{ ptr, ptr, ptr, ptr, ptr, ptr, ptr, ptr, ptr, ptr, ptr, ptr, %"class.std::vector.2", i32, [4 x i8], %"class.llvm::BumpPtrAllocatorImpl", %"class.llvm::Recycler", %"class.llvm::ArrayRecycler", %"class.llvm::Recycler.23", %"class.llvm::iplist", i32, %"struct.llvm::Align", i8, i8, i8, %"class.llvm::MachineFunctionProperties", %"class.std::unique_ptr.24", %"class.std::vector.32", %"class.std::vector.37", %"class.std::vector.37", %"class.std::vector.42", %"class.llvm::DenseMap.47", %"class.llvm::DenseMap.50", %"class.llvm::DenseMap.53", %"class.std::vector.56", i8, i8, i8, i8, i8, i8, [2 x i8], i32, i32, %"class.std::vector.61", %"class.std::vector.66", %"class.std::vector.66", i32, [4 x i8], ptr, ptr, %"class.llvm::DenseMap.71", %"class.llvm::SmallVector.74", i32, [4 x i8], %"class.llvm::SmallVector.79", %"class.llvm::DenseMap.84", i8, [7 x i8] }>
%"class.std::vector.2" = type { %"struct.std::_Vector_base.3" }
%"struct.std::_Vector_base.3" = type { %"struct.std::_Vector_base<llvm::MachineBasicBlock *, std::allocator<llvm::MachineBasicBlock *>>::_Vector_impl" }
%"struct.std::_Vector_base<llvm::MachineBasicBlock *, std::allocator<llvm::MachineBasicBlock *>>::_Vector_impl" = type { %"struct.std::_Vector_base<llvm::MachineBasicBlock *, std::allocator<llvm::MachineBasicBlock *>>::_Vector_impl_data" }
%"struct.std::_Vector_base<llvm::MachineBasicBlock *, std::allocator<llvm::MachineBasicBlock *>>::_Vector_impl_data" = type { ptr, ptr, ptr }
%"class.llvm::BumpPtrAllocatorImpl" = type { ptr, ptr, %"class.llvm::SmallVector.8", %"class.llvm::SmallVector.13", i64, i64 }
%"class.llvm::SmallVector.8" = type { %"class.llvm::SmallVectorImpl.9", %"struct.llvm::SmallVectorStorage.12" }
%"class.llvm::SmallVectorImpl.9" = type { %"class.llvm::SmallVectorTemplateBase.10" }
%"class.llvm::SmallVectorTemplateBase.10" = type { %"class.llvm::SmallVectorTemplateCommon.11" }
%"class.llvm::SmallVectorTemplateCommon.11" = type { %"class.llvm::SmallVectorBase" }
%"struct.llvm::SmallVectorStorage.12" = type { [32 x i8] }
%"class.llvm::SmallVector.13" = type { %"class.llvm::SmallVectorImpl.14" }
%"class.llvm::SmallVectorImpl.14" = type { %"class.llvm::SmallVectorTemplateBase.15" }
%"class.llvm::SmallVectorTemplateBase.15" = type { %"class.llvm::SmallVectorTemplateCommon.16" }
%"class.llvm::SmallVectorTemplateCommon.16" = type { %"class.llvm::SmallVectorBase" }
%"class.llvm::Recycler" = type { ptr }
%"class.llvm::ArrayRecycler" = type { %"class.llvm::SmallVector.18" }
%"class.llvm::SmallVector.18" = type { %"class.llvm::SmallVectorImpl.19", %"struct.llvm::SmallVectorStorage.22" }
%"class.llvm::SmallVectorImpl.19" = type { %"class.llvm::SmallVectorTemplateBase.20" }
%"class.llvm::SmallVectorTemplateBase.20" = type { %"class.llvm::SmallVectorTemplateCommon.21" }
%"class.llvm::SmallVectorTemplateCommon.21" = type { %"class.llvm::SmallVectorBase" }
%"struct.llvm::SmallVectorStorage.22" = type { [64 x i8] }
%"class.llvm::Recycler.23" = type { ptr }
%"class.llvm::iplist" = type { %"class.llvm::iplist_impl" }
%"class.llvm::iplist_impl" = type { %"class.llvm::simple_ilist" }
%"class.llvm::simple_ilist" = type { %"class.llvm::ilist_sentinel" }
%"class.llvm::ilist_sentinel" = type { %"class.llvm::ilist_node_impl" }
%"class.llvm::MachineFunctionProperties" = type { %"class.std::bitset" }
%"class.std::bitset" = type { %"struct.std::_Base_bitset" }
%"struct.std::_Base_bitset" = type { i64 }
%"class.std::unique_ptr.24" = type { %"struct.std::__uniq_ptr_data.25" }
%"struct.std::__uniq_ptr_data.25" = type { %"class.std::__uniq_ptr_impl.26" }
%"class.std::__uniq_ptr_impl.26" = type { %"class.std::tuple.27" }
%"class.std::tuple.27" = type { %"struct.std::_Tuple_impl.28" }
%"struct.std::_Tuple_impl.28" = type { %"struct.std::_Head_base.31" }
%"struct.std::_Head_base.31" = type { ptr }
%"class.std::vector.37" = type { %"struct.std::_Vector_base.38" }
%"struct.std::_Vector_base.38" = type { %"struct.std::_Vector_base<llvm::MCSymbol *, std::allocator<llvm::MCSymbol *>>::_Vector_impl" }
%"struct.std::_Vector_base<llvm::MCSymbol *, std::allocator<llvm::MCSymbol *>>::_Vector_impl" = type { %"struct.std::_Vector_base<llvm::MCSymbol *, std::allocator<llvm::MCSymbol *>>::_Vector_impl_data" }
%"struct.std::_Vector_base<llvm::MCSymbol *, std::allocator<llvm::MCSymbol *>>::_Vector_impl_data" = type { ptr, ptr, ptr }
%"class.std::vector.42" = type { %"struct.std::_Vector_base.43" }
%"struct.std::_Vector_base.43" = type { %"struct.std::_Vector_base<llvm::LandingPadInfo, std::allocator<llvm::LandingPadInfo>>::_Vector_impl" }
%"struct.std::_Vector_base<llvm::LandingPadInfo, std::allocator<llvm::LandingPadInfo>>::_Vector_impl" = type { %"struct.std::_Vector_base<llvm::LandingPadInfo, std::allocator<llvm::LandingPadInfo>>::_Vector_impl_data" }
%"struct.std::_Vector_base<llvm::LandingPadInfo, std::allocator<llvm::LandingPadInfo>>::_Vector_impl_data" = type { ptr, ptr, ptr }
%"class.llvm::DenseMap.47" = type <{ ptr, i32, i32, i32, [4 x i8] }>
%"class.llvm::DenseMap.50" = type <{ ptr, i32, i32, i32, [4 x i8] }>
%"class.llvm::DenseMap.53" = type <{ ptr, i32, i32, i32, [4 x i8] }>
%"class.std::vector.56" = type { %"struct.std::_Vector_base.57" }
%"struct.std::_Vector_base.57" = type { %"struct.std::_Vector_base<std::pair<llvm::MCSymbol *, llvm::MDNode *>, std::allocator<std::pair<llvm::MCSymbol *, llvm::MDNode *>>>::_Vector_impl" }
%"struct.std::_Vector_base<std::pair<llvm::MCSymbol *, llvm::MDNode *>, std::allocator<std::pair<llvm::MCSymbol *, llvm::MDNode *>>>::_Vector_impl" = type { %"struct.std::_Vector_base<std::pair<llvm::MCSymbol *, llvm::MDNode *>, std::allocator<std::pair<llvm::MCSymbol *, llvm::MDNode *>>>::_Vector_impl_data" }
%"struct.std::_Vector_base<std::pair<llvm::MCSymbol *, llvm::MDNode *>, std::allocator<std::pair<llvm::MCSymbol *, llvm::MDNode *>>>::_Vector_impl_data" = type { ptr, ptr, ptr }
%"class.std::vector.61" = type { %"struct.std::_Vector_base.62" }
%"struct.std::_Vector_base.62" = type { %"struct.std::_Vector_base<const llvm::GlobalValue *, std::allocator<const llvm::GlobalValue *>>::_Vector_impl" }
%"struct.std::_Vector_base<const llvm::GlobalValue *, std::allocator<const llvm::GlobalValue *>>::_Vector_impl" = type { %"struct.std::_Vector_base<const llvm::GlobalValue *, std::allocator<const llvm::GlobalValue *>>::_Vector_impl_data" }
%"struct.std::_Vector_base<const llvm::GlobalValue *, std::allocator<const llvm::GlobalValue *>>::_Vector_impl_data" = type { ptr, ptr, ptr }
%"class.std::vector.66" = type { %"struct.std::_Vector_base.67" }
%"struct.std::_Vector_base.67" = type { %"struct.std::_Vector_base<unsigned int, std::allocator<unsigned int>>::_Vector_impl" }
%"struct.std::_Vector_base<unsigned int, std::allocator<unsigned int>>::_Vector_impl" = type { %"struct.std::_Vector_base<unsigned int, std::allocator<unsigned int>>::_Vector_impl_data" }
%"struct.std::_Vector_base<unsigned int, std::allocator<unsigned int>>::_Vector_impl_data" = type { ptr, ptr, ptr }
%"class.llvm::DenseMap.71" = type <{ ptr, i32, i32, i32, [4 x i8] }>
%"class.llvm::SmallVector.74" = type { %"class.llvm::SmallVectorImpl.75", %"struct.llvm::SmallVectorStorage.78" }
%"class.llvm::SmallVectorImpl.75" = type { %"class.llvm::SmallVectorTemplateBase.76" }
%"class.llvm::SmallVectorTemplateBase.76" = type { %"class.llvm::SmallVectorTemplateCommon.77" }
%"class.llvm::SmallVectorTemplateCommon.77" = type { %"class.llvm::SmallVectorBase" }
%"struct.llvm::SmallVectorStorage.78" = type { [128 x i8] }
%"class.llvm::SmallVector.79" = type { %"class.llvm::SmallVectorImpl.80", %"struct.llvm::SmallVectorStorage.83" }
%"class.llvm::SmallVectorImpl.80" = type { %"class.llvm::SmallVectorTemplateBase.81" }
%"class.llvm::SmallVectorTemplateBase.81" = type { %"class.llvm::SmallVectorTemplateCommon.82" }
%"class.llvm::SmallVectorTemplateCommon.82" = type { %"class.llvm::SmallVectorBase" }
%"struct.llvm::SmallVectorStorage.83" = type { [160 x i8] }
%"class.llvm::DenseMap.84" = type <{ ptr, i32, i32, i32, [4 x i8] }>
%"class.std::optional.394" = type { %"struct.std::_Optional_base.395" }
%"struct.std::_Optional_base.395" = type { %"struct.std::_Optional_payload.397" }
%"struct.std::_Optional_payload.397" = type { %"struct.std::_Optional_payload_base.base.399", [7 x i8] }
%"struct.std::_Optional_payload_base.base.399" = type <{ %"union.std::_Optional_payload_base<llvm::StringRef>::_Storage", i8 }>
%"union.std::_Optional_payload_base<llvm::StringRef>::_Storage" = type { %"class.llvm::StringRef" }
%"class.llvm::GlobalValue" = type { %"class.llvm::Constant", ptr, i32, i32, ptr }
%"class.llvm::Constant" = type { %"class.llvm::User" }
%"class.llvm::User" = type { %"class.llvm::Value" }
%"class.llvm::Value" = type { i8, i8, i16, i32, ptr, ptr }
%"struct.std::_Optional_payload_base.398" = type <{ %"union.std::_Optional_payload_base<llvm::StringRef>::_Storage", i8, [7 x i8] }>

@.str.9 = private unnamed_addr constant [9 x i8] c"unlikely\00", align 1
@.str.10 = private unnamed_addr constant [8 x i8] c"unknown\00", align 1

; Function Attrs: mustprogress nounwind uwtable
define linkonce_odr hidden noundef nonnull align 8 dereferenceable(16) ptr @_ZNSt22_Optional_payload_baseIN4llvm9StringRefEE6_M_getEv(ptr noundef nonnull align 8 dereferenceable(17) %0) #1 comdat align 2 {
  %2 = alloca ptr, align 8
  store ptr %0, ptr %2, align 8
  %3 = load ptr, ptr %2, align 8
  %4 = getelementptr inbounds nuw %"struct.std::_Optional_payload_base.398", ptr %3, i32 0, i32 0
  ret ptr %4
}

; Function Attrs: mustprogress nounwind uwtable
define linkonce_odr hidden noundef ptr @_ZNK4llvm9StringRef4dataEv(ptr noundef nonnull align 8 dereferenceable(16) %0) #1 comdat align 2 {
  %2 = alloca ptr, align 8
  store ptr %0, ptr %2, align 8
  %3 = load ptr, ptr %2, align 8
  %4 = getelementptr inbounds nuw %"class.llvm::StringRef", ptr %3, i32 0, i32 0
  %5 = load ptr, ptr %4, align 8
  ret ptr %5
}

; Function Attrs: mustprogress nounwind uwtable
define linkonce_odr hidden noundef zeroext i1 @_ZNK4llvm9StringRef5emptyEv(ptr noundef nonnull align 8 dereferenceable(16) %0) #1 comdat align 2 {
  %2 = alloca ptr, align 8
  store ptr %0, ptr %2, align 8
  %3 = load ptr, ptr %2, align 8
  %4 = getelementptr inbounds nuw %"class.llvm::StringRef", ptr %3, i32 0, i32 1
  %5 = load i64, ptr %4, align 8
  %6 = icmp eq i64 %5, 0
  ret i1 %6
}

; Function Attrs: mustprogress nounwind uwtable
define linkonce_odr hidden noundef i64 @_ZNK4llvm9StringRef4sizeEv(ptr noundef nonnull align 8 dereferenceable(16) %0) #1 comdat align 2 {
  %2 = alloca ptr, align 8
  store ptr %0, ptr %2, align 8
  %3 = load ptr, ptr %2, align 8
  %4 = getelementptr inbounds nuw %"class.llvm::StringRef", ptr %3, i32 0, i32 1
  %5 = load i64, ptr %4, align 8
  ret i64 %5
}

; Function Attrs: mustprogress nounwind uwtable
define linkonce_odr hidden noundef i64 @_ZNSt11char_traitsIcE6lengthEPKc(ptr noundef %0) #1 comdat align 2 {
  %2 = alloca ptr, align 8
  store ptr %0, ptr %2, align 8
  %3 = load ptr, ptr %2, align 8
  %4 = call i64 @strlen(ptr noundef %3) #2
  ret i64 %4
}

; Function Attrs: mustprogress nounwind uwtable
define linkonce_odr hidden noundef nonnull align 8 dereferenceable(16) ptr @_ZNSt19_Optional_base_implIN4llvm9StringRefESt14_Optional_baseIS1_Lb1ELb1EEE6_M_getEv(ptr noundef nonnull align 1 dereferenceable(1) %0) #1 comdat align 2 {
  %2 = alloca ptr, align 8
  store ptr %0, ptr %2, align 8
  %3 = load ptr, ptr %2, align 8
  br label %4

4:                                                ; preds = %1
  br label %5

5:                                                ; preds = %4
  %6 = getelementptr inbounds nuw %"struct.std::_Optional_base.395", ptr %3, i32 0, i32 0
  %7 = call noundef nonnull align 8 dereferenceable(16) ptr @_ZNSt22_Optional_payload_baseIN4llvm9StringRefEE6_M_getEv(ptr noundef nonnull align 8 dereferenceable(17) %6) #2
  ret ptr %7
}

; Function Attrs: mustprogress nounwind uwtable
define linkonce_odr hidden noundef zeroext i1 @_ZNKSt19_Optional_base_implIN4llvm9StringRefESt14_Optional_baseIS1_Lb1ELb1EEE13_M_is_engagedEv(ptr noundef nonnull align 1 dereferenceable(1) %0) #1 comdat align 2 {
  %2 = alloca ptr, align 8
  store ptr %0, ptr %2, align 8
  %3 = load ptr, ptr %2, align 8
  %4 = getelementptr inbounds nuw %"struct.std::_Optional_base.395", ptr %3, i32 0, i32 0
  %5 = getelementptr inbounds nuw %"struct.std::_Optional_payload_base.398", ptr %4, i32 0, i32 1
  %6 = load i8, ptr %5, align 8
  %7 = trunc i8 %6 to i1
  ret i1 %7
}

; Function Attrs: mustprogress nounwind uwtable
define linkonce_odr hidden noundef i32 @_ZNK4llvm11GlobalValue26getGlobalValueSubClassDataEv(ptr noundef nonnull align 8 dereferenceable(48) %0) #1 comdat align 2 {
  %2 = alloca ptr, align 8
  store ptr %0, ptr %2, align 8
  %3 = load ptr, ptr %2, align 8
  %4 = getelementptr inbounds nuw %"class.llvm::GlobalValue", ptr %3, i32 0, i32 2
  %5 = load i32, ptr %4, align 8
  %6 = lshr i32 %5, 17
  ret i32 %6
}

; Function Attrs: mustprogress nounwind uwtable
define linkonce_odr hidden noundef zeroext i1 @_ZN4llvmeqENS_9StringRefES0_(ptr %0, i64 %1, ptr %2, i64 %3) #1 comdat {
  %5 = alloca i1, align 1
  %6 = alloca %"class.llvm::StringRef", align 8
  %7 = alloca %"class.llvm::StringRef", align 8
  %8 = getelementptr inbounds nuw { ptr, i64 }, ptr %6, i32 0, i32 0
  store ptr %0, ptr %8, align 8
  %9 = getelementptr inbounds nuw { ptr, i64 }, ptr %6, i32 0, i32 1
  store i64 %1, ptr %9, align 8
  %10 = getelementptr inbounds nuw { ptr, i64 }, ptr %7, i32 0, i32 0
  store ptr %2, ptr %10, align 8
  %11 = getelementptr inbounds nuw { ptr, i64 }, ptr %7, i32 0, i32 1
  store i64 %3, ptr %11, align 8
  %12 = call noundef i64 @_ZNK4llvm9StringRef4sizeEv(ptr noundef nonnull align 8 dereferenceable(16) %6)
  %13 = call noundef i64 @_ZNK4llvm9StringRef4sizeEv(ptr noundef nonnull align 8 dereferenceable(16) %7)
  %14 = icmp ne i64 %12, %13
  br i1 %14, label %15, label %16

15:                                               ; preds = %4
  store i1 false, ptr %5, align 1
  br label %25

16:                                               ; preds = %4
  %17 = call noundef zeroext i1 @_ZNK4llvm9StringRef5emptyEv(ptr noundef nonnull align 8 dereferenceable(16) %6)
  br i1 %17, label %18, label %19

18:                                               ; preds = %16
  store i1 true, ptr %5, align 1
  br label %25

19:                                               ; preds = %16
  %20 = call noundef ptr @_ZNK4llvm9StringRef4dataEv(ptr noundef nonnull align 8 dereferenceable(16) %6)
  %21 = call noundef ptr @_ZNK4llvm9StringRef4dataEv(ptr noundef nonnull align 8 dereferenceable(16) %7)
  %22 = call noundef i64 @_ZNK4llvm9StringRef4sizeEv(ptr noundef nonnull align 8 dereferenceable(16) %6)
  %23 = call i32 @memcmp(ptr noundef %20, ptr noundef %21, i64 noundef %22) #13
  %24 = icmp eq i32 %23, 0
  store i1 %24, ptr %5, align 1
  br label %25

25:                                               ; preds = %19, %18, %15
  %26 = load i1, ptr %5, align 1
  ret i1 %26
}

; Function Attrs: mustprogress nounwind uwtable
define linkonce_odr hidden void @_ZN4llvm9StringRefC2EPKc(ptr noundef nonnull align 8 dereferenceable(16) %0, ptr noundef %1) unnamed_addr #1 comdat align 2 {
  %3 = alloca ptr, align 8
  %4 = alloca ptr, align 8
  store ptr %0, ptr %3, align 8
  store ptr %1, ptr %4, align 8
  %5 = load ptr, ptr %3, align 8
  %6 = getelementptr inbounds nuw %"class.llvm::StringRef", ptr %5, i32 0, i32 0
  %7 = load ptr, ptr %4, align 8
  store ptr %7, ptr %6, align 8
  %8 = getelementptr inbounds nuw %"class.llvm::StringRef", ptr %5, i32 0, i32 1
  %9 = load ptr, ptr %4, align 8
  %10 = icmp ne ptr %9, null
  br i1 %10, label %11, label %14

11:                                               ; preds = %2
  %12 = load ptr, ptr %4, align 8
  %13 = call noundef i64 @_ZNSt11char_traitsIcE6lengthEPKc(ptr noundef %12)
  br label %15

14:                                               ; preds = %2
  br label %15

15:                                               ; preds = %14, %11
  %16 = phi i64 [ %13, %11 ], [ 0, %14 ]
  store i64 %16, ptr %8, align 8
  ret void
}

; Function Attrs: mustprogress nounwind uwtable
define linkonce_odr hidden noundef nonnull align 8 dereferenceable(16) ptr @_ZNRSt8optionalIN4llvm9StringRefEEdeEv(ptr noundef nonnull align 8 dereferenceable(24) %0) #1 comdat align 2 {
  %2 = alloca ptr, align 8
  store ptr %0, ptr %2, align 8
  %3 = load ptr, ptr %2, align 8
  %4 = call noundef nonnull align 8 dereferenceable(16) ptr @_ZNSt19_Optional_base_implIN4llvm9StringRefESt14_Optional_baseIS1_Lb1ELb1EEE6_M_getEv(ptr noundef nonnull align 1 dereferenceable(1) %3) #2
  ret ptr %4
}

; Function Attrs: mustprogress nounwind uwtable
define linkonce_odr hidden noundef zeroext i1 @_ZNKSt8optionalIN4llvm9StringRefEEcvbEv(ptr noundef nonnull align 8 dereferenceable(24) %0) #1 comdat align 2 {
  %2 = alloca ptr, align 8
  store ptr %0, ptr %2, align 8
  %3 = load ptr, ptr %2, align 8
  %4 = call noundef zeroext i1 @_ZNKSt19_Optional_base_implIN4llvm9StringRefESt14_Optional_baseIS1_Lb1ELb1EEE13_M_is_engagedEv(ptr noundef nonnull align 1 dereferenceable(1) %3) #2
  ret i1 %4
}

; Function Attrs: mustprogress nounwind uwtable
define linkonce_odr hidden noundef zeroext i1 @_ZNK4llvm12GlobalObject10hasSectionEv(ptr noundef nonnull align 8 dereferenceable(56) %0) #1 comdat align 2 {
  %2 = alloca ptr, align 8
  store ptr %0, ptr %2, align 8
  %3 = load ptr, ptr %2, align 8
  %4 = call noundef i32 @_ZNK4llvm11GlobalValue26getGlobalValueSubClassDataEv(ptr noundef nonnull align 8 dereferenceable(48) %3)
  %5 = and i32 %4, 512
  %6 = icmp ne i32 %5, 0
  ret i1 %6
}

; Function Attrs: mustprogress nounwind uwtable
define linkonce_odr hidden noundef nonnull align 8 dereferenceable(136) ptr @_ZNK4llvm15MachineFunction11getFunctionEv(ptr noundef nonnull align 8 dereferenceable(1041) %0) #1 comdat align 2 {
  %2 = alloca ptr, align 8
  store ptr %0, ptr %2, align 8
  %3 = load ptr, ptr %2, align 8
  %4 = getelementptr inbounds nuw %"class.llvm::MachineFunction", ptr %3, i32 0, i32 0
  %5 = load ptr, ptr %4, align 8
  ret ptr %5
}

; Function Attrs: mustprogress nounwind uwtable
define dso_local noundef zeroext i1 @_ZNK4llvm15TargetInstrInfo21isFunctionSafeToSplitERKNS_15MachineFunctionE(ptr noundef nonnull align 8 dereferenceable(80) %0, ptr noundef nonnull align 8 dereferenceable(1041) %1) unnamed_addr #1 align 2 {
  %3 = alloca i1, align 1
  %4 = alloca ptr, align 8
  %5 = alloca ptr, align 8
  %6 = alloca %"class.std::optional.394", align 8
  %7 = alloca %"class.llvm::StringRef", align 8
  %8 = alloca %"class.llvm::StringRef", align 8
  %9 = alloca %"class.llvm::StringRef", align 8
  %10 = alloca %"class.llvm::StringRef", align 8
  store ptr %0, ptr %4, align 8
  store ptr %1, ptr %5, align 8
  %11 = load ptr, ptr %5, align 8
  %12 = call noundef nonnull align 8 dereferenceable(136) ptr @_ZNK4llvm15MachineFunction11getFunctionEv(ptr noundef nonnull align 8 dereferenceable(1041) %11)
  %13 = call noundef zeroext i1 @_ZNK4llvm12GlobalObject10hasSectionEv(ptr noundef nonnull align 8 dereferenceable(56) %12)
  br i1 %13, label %14, label %15

14:                                               ; preds = %2
  store i1 false, ptr %3, align 1
  br label %43

15:                                               ; preds = %2
  %16 = load ptr, ptr %5, align 8
  %17 = call noundef nonnull align 8 dereferenceable(136) ptr @_ZNK4llvm15MachineFunction11getFunctionEv(ptr noundef nonnull align 8 dereferenceable(1041) %16)
  call void @_ZNK4llvm8Function16getSectionPrefixEv(ptr dead_on_unwind writable sret(%"class.std::optional.394") align 8 %6, ptr noundef nonnull align 8 dereferenceable(136) %17)
  %18 = call noundef zeroext i1 @_ZNKSt8optionalIN4llvm9StringRefEEcvbEv(ptr noundef nonnull align 8 dereferenceable(24) %6) #2
  br i1 %18, label %19, label %42

19:                                               ; preds = %15
  %20 = call noundef nonnull align 8 dereferenceable(16) ptr @_ZNRSt8optionalIN4llvm9StringRefEEdeEv(ptr noundef nonnull align 8 dereferenceable(24) %6) #2
  call void @llvm.memcpy.p0.p0.i64(ptr align 8 %7, ptr align 8 %20, i64 16, i1 false)
  call void @_ZN4llvm9StringRefC2EPKc(ptr noundef nonnull align 8 dereferenceable(16) %8, ptr noundef @.str.9)
  %21 = getelementptr inbounds nuw { ptr, i64 }, ptr %7, i32 0, i32 0
  %22 = load ptr, ptr %21, align 8
  %23 = getelementptr inbounds nuw { ptr, i64 }, ptr %7, i32 0, i32 1
  %24 = load i64, ptr %23, align 8
  %25 = getelementptr inbounds nuw { ptr, i64 }, ptr %8, i32 0, i32 0
  %26 = load ptr, ptr %25, align 8
  %27 = getelementptr inbounds nuw { ptr, i64 }, ptr %8, i32 0, i32 1
  %28 = load i64, ptr %27, align 8
  %29 = call noundef zeroext i1 @_ZN4llvmeqENS_9StringRefES0_(ptr %22, i64 %24, ptr %26, i64 %28)
  br i1 %29, label %41, label %30

30:                                               ; preds = %19
  %31 = call noundef nonnull align 8 dereferenceable(16) ptr @_ZNRSt8optionalIN4llvm9StringRefEEdeEv(ptr noundef nonnull align 8 dereferenceable(24) %6) #2
  call void @llvm.memcpy.p0.p0.i64(ptr align 8 %9, ptr align 8 %31, i64 16, i1 false)
  call void @_ZN4llvm9StringRefC2EPKc(ptr noundef nonnull align 8 dereferenceable(16) %10, ptr noundef @.str.10)
  %32 = getelementptr inbounds nuw { ptr, i64 }, ptr %9, i32 0, i32 0
  %33 = load ptr, ptr %32, align 8
  %34 = getelementptr inbounds nuw { ptr, i64 }, ptr %9, i32 0, i32 1
  %35 = load i64, ptr %34, align 8
  %36 = getelementptr inbounds nuw { ptr, i64 }, ptr %10, i32 0, i32 0
  %37 = load ptr, ptr %36, align 8
  %38 = getelementptr inbounds nuw { ptr, i64 }, ptr %10, i32 0, i32 1
  %39 = load i64, ptr %38, align 8
  %40 = call noundef zeroext i1 @_ZN4llvmeqENS_9StringRefES0_(ptr %33, i64 %35, ptr %37, i64 %39)
  br i1 %40, label %41, label %42

41:                                               ; preds = %30, %19
  store i1 false, ptr %3, align 1
  br label %43

42:                                               ; preds = %30, %15
  store i1 true, ptr %3, align 1
  br label %43

43:                                               ; preds = %42, %41, %14
  %44 = load i1, ptr %3, align 1
  ret i1 %44
}