; Function Attrs: mustprogress nounwind uwtable
define dso_local noundef zeroext i1 @_ZNK4llvm15TargetInstrInfo21isFunctionSafeToSplitERKNS_15MachineFunctionE(ptr nocapture nonnull readnone align 8 %0, ptr nocapture noundef nonnull readonly align 8 dereferenceable(1041) %1) unnamed_addr #0 align 2 {
  %3 = alloca %"class.std::optional.394", align 8
  %4 = load ptr, ptr %1, align 8
  %5 = getelementptr inbounds nuw i8, ptr %4, i64 32
  %6 = load i32, ptr %5, align 8
  %7 = and i32 %6, 67108864
  %.not = icmp eq i32 %7, 0
  br i1 %.not, label %8, label %_ZN4llvmeqENS_9StringRefES0_.exit.thread

8:                                                ; preds = %2
  call void @_ZNK4llvm8Function16getSectionPrefixEv(ptr dead_on_unwind nonnull writable sret(%"class.std::optional.394") align 8 %3, ptr noundef nonnull align 8 dereferenceable(136) %4) #26
  %9 = getelementptr inbounds nuw i8, ptr %3, i64 16
  %10 = load i8, ptr %9, align 8
  %11 = trunc i8 %10 to i1
  br i1 %11, label %12, label %_ZN4llvmeqENS_9StringRefES0_.exit8.thread15

12:                                               ; preds = %8
  %.sroa.01.0.copyload = load ptr, ptr %3, align 8
  %.sroa.22.0..sroa_idx = getelementptr inbounds i8, ptr %3, i64 8
  %.sroa.22.0.copyload = load i64, ptr %.sroa.22.0..sroa_idx, align 8
  switch i64 %.sroa.22.0.copyload, label %_ZN4llvmeqENS_9StringRefES0_.exit8.thread15 [
    i64 8, label %_ZN4llvmeqENS_9StringRefES0_.exit
    i64 7, label %_ZN4llvmeqENS_9StringRefES0_.exit8
  ]

_ZN4llvmeqENS_9StringRefES0_.exit:                ; preds = %12
  %bcmp.i = call i32 @bcmp(ptr noundef nonnull dereferenceable(8) %.sroa.01.0.copyload, ptr noundef nonnull dereferenceable(8) @.str.9, i64 8)
  %13 = icmp eq i32 %bcmp.i, 0
  br i1 %13, label %_ZN4llvmeqENS_9StringRefES0_.exit.thread, label %_ZN4llvmeqENS_9StringRefES0_.exit8.thread15

_ZN4llvmeqENS_9StringRefES0_.exit8:               ; preds = %12
  %bcmp.i7 = call i32 @bcmp(ptr noundef nonnull dereferenceable(7) %.sroa.01.0.copyload, ptr noundef nonnull dereferenceable(7) @.str.10, i64 7)
  %14 = icmp eq i32 %bcmp.i7, 0
  br i1 %14, label %_ZN4llvmeqENS_9StringRefES0_.exit.thread, label %_ZN4llvmeqENS_9StringRefES0_.exit8.thread15

_ZN4llvmeqENS_9StringRefES0_.exit8.thread15:      ; preds = %_ZN4llvmeqENS_9StringRefES0_.exit, %12, %_ZN4llvmeqENS_9StringRefES0_.exit8, %8
  br label %_ZN4llvmeqENS_9StringRefES0_.exit.thread

_ZN4llvmeqENS_9StringRefES0_.exit.thread:         ; preds = %_ZN4llvmeqENS_9StringRefES0_.exit, %_ZN4llvmeqENS_9StringRefES0_.exit8, %2, %_ZN4llvmeqENS_9StringRefES0_.exit8.thread15
  %.0 = phi i1 [ true, %_ZN4llvmeqENS_9StringRefES0_.exit8.thread15 ], [ false, %2 ], [ false, %_ZN4llvmeqENS_9StringRefES0_.exit8 ], [ false, %_ZN4llvmeqENS_9StringRefES0_.exit ]
  ret i1 %.0
}